; Function Attrs: nounwind uwtable
define dso_local void @ttlGenericCommand(ptr noundef %0, i32 noundef %1, i32 noundef %2) local_unnamed_addr #0 {
  %4 = getelementptr inbounds nuw i8, ptr %0, i64 32
  %5 = load ptr, ptr %4, align 8, !tbaa !91
  %6 = getelementptr inbounds nuw i8, ptr %0, i64 96
  %7 = load ptr, ptr %6, align 8, !tbaa !88
  %8 = getelementptr inbounds nuw i8, ptr %7, i64 8
  %9 = load ptr, ptr %8, align 8, !tbaa !89
  %10 = tail call ptr @lookupKeyReadWithFlags(ptr noundef %5, ptr noundef %9, i32 noundef 1) #10
  %11 = icmp eq ptr %10, null
  br i1 %11, label %.thread, label %12

12:                                               ; preds = %3
  %13 = load ptr, ptr %4, align 8, !tbaa !91
  %14 = load ptr, ptr %6, align 8, !tbaa !88
  %15 = getelementptr inbounds nuw i8, ptr %14, i64 8
  %16 = load ptr, ptr %15, align 8, !tbaa !89
  %17 = tail call i64 @getExpire(ptr noundef %13, ptr noundef %16) #10
  %.not = icmp eq i64 %17, -1
  br i1 %.not, label %.thread, label %18

18:                                               ; preds = %12
  %.not16 = icmp eq i32 %2, 0
  br i1 %.not16, label %19, label %22

19:                                               ; preds = %18
  %20 = tail call i64 @commandTimeSnapshot() #10
  %21 = sub nsw i64 %17, %20
  br label %22

22:                                               ; preds = %19, %18
  %23 = phi i64 [ %21, %19 ], [ %17, %18 ]
  %spec.store.select = tail call i64 @llvm.smax.i64(i64 %23, i64 0)
  %.not17 = icmp eq i32 %1, 0
  br i1 %.not17, label %24, label %.thread

24:                                               ; preds = %22
  %25 = add nuw nsw i64 %spec.store.select, 500
  %26 = udiv i64 %25, 1000
  br label %.thread

.thread:                                          ; preds = %24, %22, %12, %3
  %.sink = phi i64 [ -2, %3 ], [ -1, %12 ], [ %26, %24 ], [ %spec.store.select, %22 ]
  tail call void @addReplyLongLong(ptr noundef nonnull %0, i64 noundef %.sink) #10
  ret void
}